target datalayout = "e-m:e-p270:32:32-p271:32:32-p272:64:64-i64:64-i128:128-f80:128-n8:16:32:64-S128"
target triple = "x86_64-pc-linux-gnu"

@.str = private unnamed_addr constant [34 x i8] c"PNG unsigned integer out of range\00", align 1

; Function Attrs: nounwind uwtable
define i32 @png_get_uint_31(ptr noalias noundef %0, ptr noundef %1) #0 {
  %3 = alloca ptr, align 8
  %4 = alloca ptr, align 8
  %5 = alloca i32, align 4
  store ptr %0, ptr %3, align 8, !tbaa !3
  store ptr %1, ptr %4, align 8, !tbaa !8
  call void @llvm.lifetime.start.p0(i64 4, ptr %5) #7
  %6 = load ptr, ptr %4, align 8, !tbaa !8
  %7 = load i8, ptr %6, align 1, !tbaa !10
  %8 = zext i8 %7 to i32
  %9 = shl i32 %8, 24
  %10 = load ptr, ptr %4, align 8, !tbaa !8
  %11 = getelementptr inbounds i8, ptr %10, i64 1
  %12 = load i8, ptr %11, align 1, !tbaa !10
  %13 = zext i8 %12 to i32
  %14 = shl i32 %13, 16
  %15 = add i32 %9, %14
  %16 = load ptr, ptr %4, align 8, !tbaa !8
  %17 = getelementptr inbounds i8, ptr %16, i64 2
  %18 = load i8, ptr %17, align 1, !tbaa !10
  %19 = zext i8 %18 to i32
  %20 = shl i32 %19, 8
  %21 = add i32 %15, %20
  %22 = load ptr, ptr %4, align 8, !tbaa !8
  %23 = getelementptr inbounds i8, ptr %22, i64 3
  %24 = load i8, ptr %23, align 1, !tbaa !10
  %25 = zext i8 %24 to i32
  %26 = add i32 %21, %25
  store i32 %26, ptr %5, align 4, !tbaa !11
  %27 = load i32, ptr %5, align 4, !tbaa !11
  %28 = icmp ugt i32 %27, 2147483647
  br i1 %28, label %29, label %31

29:                                               ; preds = %2
  %30 = load ptr, ptr %3, align 8, !tbaa !3
  call void @png_error(ptr noundef %30, ptr noundef @.str) #8
  unreachable

31:                                               ; preds = %2
  %32 = load i32, ptr %5, align 4, !tbaa !11
  call void @llvm.lifetime.end.p0(i64 4, ptr %5) #7
  ret i32 %32
}