; Function Attrs: nounwind uwtable
define range(i32 0, -2147483648) i32 @png_get_uint_31(ptr noalias noundef %0, ptr noundef readonly captures(none) %1) local_unnamed_addr #0 {
  %3 = load i8, ptr %1, align 1, !tbaa !3
  %4 = zext i8 %3 to i32
  %5 = shl nuw i32 %4, 24
  %6 = icmp slt i32 %5, 0
  br i1 %6, label %7, label %8

7:                                                ; preds = %2
  tail call void @png_error(ptr noundef %0, ptr noundef nonnull @.str) #11
  unreachable

8:                                                ; preds = %2
  %9 = getelementptr inbounds nuw i8, ptr %1, i64 1
  %10 = load i8, ptr %9, align 1, !tbaa !3
  %11 = zext i8 %10 to i32
  %12 = shl nuw nsw i32 %11, 16
  %13 = getelementptr inbounds nuw i8, ptr %1, i64 2
  %14 = load i8, ptr %13, align 1, !tbaa !3
  %15 = zext i8 %14 to i32
  %16 = shl nuw nsw i32 %15, 8
  %17 = getelementptr inbounds nuw i8, ptr %1, i64 3
  %18 = load i8, ptr %17, align 1, !tbaa !3
  %19 = zext i8 %18 to i32
  %20 = or disjoint i32 %12, %19
  %21 = or disjoint i32 %20, %16
  %22 = or disjoint i32 %21, %5
  ret i32 %22
}